target datalayout = "e-m:e-p270:32:32-p271:32:32-p272:64:64-i64:64-i128:128-f80:128-n8:16:32:64-S128"
target triple = "x86_64-pc-linux-gnu"

%struct.evthread_lock_callbacks = type { i32, i32, ptr, ptr, ptr, ptr }
%struct.bufferevent_private = type { %struct.bufferevent, ptr, i8, i16, i16, i16, i32, i32, %struct.event_callback, i32, i32, ptr, i64, i64, ptr, %union.anon.7, ptr }
%struct.bufferevent = type { ptr, ptr, %struct.event, %struct.event, ptr, ptr, %struct.event_watermark, %struct.event_watermark, ptr, ptr, ptr, ptr, %struct.timeval, %struct.timeval, i16 }
%struct.event = type { %struct.event_callback, %union.anon.0, i32, i16, i16, ptr, %union.anon.2, %struct.timeval }
%union.anon.0 = type { %struct.anon.1 }
%struct.anon.1 = type { ptr, ptr }
%union.anon.2 = type { %struct.anon.3 }
%struct.anon.3 = type { %struct.anon.4, %struct.timeval }
%struct.anon.4 = type { ptr, ptr }
%struct.event_watermark = type { i64, i64 }
%struct.timeval = type { i64, i64 }
%struct.event_callback = type { %struct.anon, i16, i8, i8, %union.anon, ptr }
%struct.anon = type { ptr, ptr }
%union.anon = type { ptr }
%union.anon.7 = type { %struct.sockaddr_in6 }
%struct.sockaddr_in6 = type { i16, i16, i32, %struct.in6_addr, i32 }
%struct.in6_addr = type { %union.anon.8 }
%union.anon.8 = type { [4 x i32] }
%struct.bufferevent_ops = type { ptr, i64, ptr, ptr, ptr, ptr, ptr, ptr, ptr }

@evthread_lock_fns_ = external global %struct.evthread_lock_callbacks, align 8
@event_debug_logging_mask_ = external global i32, align 4
@.str.2 = private unnamed_addr constant [31 x i8] c"%s: cannot disable 0x%hx on %p\00", align 1
@__func__.bufferevent_disable = private unnamed_addr constant [20 x i8] c"bufferevent_disable\00", align 1

; Function Attrs: nounwind uwtable
define void @bufferevent_incref(ptr noundef %0) #0 {
  %2 = alloca ptr, align 8
  %3 = alloca ptr, align 8
  %4 = alloca ptr, align 8
  %5 = alloca ptr, align 8
  store ptr %0, ptr %2, align 8
  call void @llvm.lifetime.start.p0(i64 8, ptr %3) #7
  %6 = load ptr, ptr %2, align 8
  %7 = getelementptr inbounds i8, ptr %6, i64 0
  store ptr %7, ptr %3, align 8
  br label %8

8:                                                ; preds = %1
  call void @llvm.lifetime.start.p0(i64 8, ptr %4) #7
  %9 = load ptr, ptr %2, align 8
  %10 = getelementptr inbounds i8, ptr %9, i64 0
  store ptr %10, ptr %4, align 8
  br label %11

11:                                               ; preds = %8
  %12 = load ptr, ptr %4, align 8
  %13 = getelementptr inbounds nuw %struct.bufferevent_private, ptr %12, i32 0, i32 11
  %14 = load ptr, ptr %13, align 8
  %15 = icmp ne ptr %14, null
  br i1 %15, label %16, label %22

16:                                               ; preds = %11
  %17 = load ptr, ptr getelementptr inbounds nuw (%struct.evthread_lock_callbacks, ptr @evthread_lock_fns_, i32 0, i32 4), align 8
  %18 = load ptr, ptr %4, align 8
  %19 = getelementptr inbounds nuw %struct.bufferevent_private, ptr %18, i32 0, i32 11
  %20 = load ptr, ptr %19, align 8
  %21 = call i32 %17(i32 noundef 0, ptr noundef %20)
  br label %22

22:                                               ; preds = %16, %11
  br label %23

23:                                               ; preds = %22
  br label %24

24:                                               ; preds = %23
  call void @llvm.lifetime.end.p0(i64 8, ptr %4) #7
  br label %25

25:                                               ; preds = %24
  br label %26

26:                                               ; preds = %25
  %27 = load ptr, ptr %3, align 8
  %28 = getelementptr inbounds nuw %struct.bufferevent_private, ptr %27, i32 0, i32 10
  %29 = load i32, ptr %28, align 4
  %30 = add nsw i32 %29, 1
  store i32 %30, ptr %28, align 4
  br label %31

31:                                               ; preds = %26
  call void @llvm.lifetime.start.p0(i64 8, ptr %5) #7
  %32 = load ptr, ptr %2, align 8
  %33 = getelementptr inbounds i8, ptr %32, i64 0
  store ptr %33, ptr %5, align 8
  br label %34

34:                                               ; preds = %31
  %35 = load ptr, ptr %5, align 8
  %36 = getelementptr inbounds nuw %struct.bufferevent_private, ptr %35, i32 0, i32 11
  %37 = load ptr, ptr %36, align 8
  %38 = icmp ne ptr %37, null
  br i1 %38, label %39, label %45

39:                                               ; preds = %34
  %40 = load ptr, ptr getelementptr inbounds nuw (%struct.evthread_lock_callbacks, ptr @evthread_lock_fns_, i32 0, i32 5), align 8
  %41 = load ptr, ptr %5, align 8
  %42 = getelementptr inbounds nuw %struct.bufferevent_private, ptr %41, i32 0, i32 11
  %43 = load ptr, ptr %42, align 8
  %44 = call i32 %40(i32 noundef 0, ptr noundef %43)
  br label %45

45:                                               ; preds = %39, %34
  br label %46

46:                                               ; preds = %45
  br label %47

47:                                               ; preds = %46
  call void @llvm.lifetime.end.p0(i64 8, ptr %5) #7
  br label %48

48:                                               ; preds = %47
  br label %49

49:                                               ; preds = %48
  call void @llvm.lifetime.end.p0(i64 8, ptr %3) #7
  ret void
}

; Function Attrs: nounwind uwtable
define void @bufferevent_run_eventcb_(ptr noundef %0, i16 noundef signext %1, i32 noundef %2) #0 {
  %4 = alloca ptr, align 8
  %5 = alloca i16, align 2
  %6 = alloca i32, align 4
  %7 = alloca ptr, align 8
  %8 = alloca i32, align 4
  store ptr %0, ptr %4, align 8
  store i16 %1, ptr %5, align 2
  store i32 %2, ptr %6, align 4
  call void @llvm.lifetime.start.p0(i64 8, ptr %7) #7
  %9 = load ptr, ptr %4, align 8
  %10 = getelementptr inbounds i8, ptr %9, i64 0
  store ptr %10, ptr %7, align 8
  %11 = load ptr, ptr %4, align 8
  %12 = getelementptr inbounds nuw %struct.bufferevent, ptr %11, i32 0, i32 10
  %13 = load ptr, ptr %12, align 8
  %14 = icmp eq ptr %13, null
  br i1 %14, label %15, label %16

15:                                               ; preds = %3
  store i32 1, ptr %8, align 4
  br label %62

16:                                               ; preds = %3
  %17 = load ptr, ptr %7, align 8
  %18 = getelementptr inbounds nuw %struct.bufferevent_private, ptr %17, i32 0, i32 9
  %19 = load i32, ptr %18, align 8
  %20 = load i32, ptr %6, align 4
  %21 = or i32 %19, %20
  %22 = and i32 %21, 4
  %23 = icmp ne i32 %22, 0
  br i1 %23, label %24, label %52

24:                                               ; preds = %16
  %25 = load i16, ptr %5, align 2
  %26 = sext i16 %25 to i32
  %27 = load ptr, ptr %7, align 8
  %28 = getelementptr inbounds nuw %struct.bufferevent_private, ptr %27, i32 0, i32 3
  %29 = load i16, ptr %28, align 2
  %30 = sext i16 %29 to i32
  %31 = or i32 %30, %26
  %32 = trunc i32 %31 to i16
  store i16 %32, ptr %28, align 2
  %33 = call ptr @__errno_location() #8
  %34 = load i32, ptr %33, align 4
  %35 = load ptr, ptr %7, align 8
  %36 = getelementptr inbounds nuw %struct.bufferevent_private, ptr %35, i32 0, i32 6
  store i32 %34, ptr %36, align 8
  br label %37

37:                                               ; preds = %24
  %38 = load ptr, ptr %7, align 8
  %39 = getelementptr inbounds nuw %struct.bufferevent_private, ptr %38, i32 0, i32 0
  %40 = getelementptr inbounds nuw %struct.bufferevent, ptr %39, i32 0, i32 0
  %41 = load ptr, ptr %40, align 8
  %42 = load ptr, ptr %7, align 8
  %43 = getelementptr inbounds nuw %struct.bufferevent_private, ptr %42, i32 0, i32 8
  %44 = call i32 @event_deferred_cb_schedule_(ptr noundef %41, ptr noundef %43)
  %45 = icmp ne i32 %44, 0
  br i1 %45, label %46, label %49

46:                                               ; preds = %37
  %47 = load ptr, ptr %7, align 8
  %48 = getelementptr inbounds nuw %struct.bufferevent_private, ptr %47, i32 0, i32 0
  call void @bufferevent_incref(ptr noundef %48)
  br label %49

49:                                               ; preds = %46, %37
  br label %50

50:                                               ; preds = %49
  br label %51

51:                                               ; preds = %50
  br label %61

52:                                               ; preds = %16
  %53 = load ptr, ptr %4, align 8
  %54 = getelementptr inbounds nuw %struct.bufferevent, ptr %53, i32 0, i32 10
  %55 = load ptr, ptr %54, align 8
  %56 = load ptr, ptr %4, align 8
  %57 = load i16, ptr %5, align 2
  %58 = load ptr, ptr %4, align 8
  %59 = getelementptr inbounds nuw %struct.bufferevent, ptr %58, i32 0, i32 11
  %60 = load ptr, ptr %59, align 8
  call void %55(ptr noundef %56, i16 noundef signext %57, ptr noundef %60)
  br label %61

61:                                               ; preds = %52, %51
  store i32 0, ptr %8, align 4
  br label %62

62:                                               ; preds = %61, %15
  call void @llvm.lifetime.end.p0(i64 8, ptr %7) #7
  %63 = load i32, ptr %8, align 4
  switch i32 %63, label %65 [
    i32 0, label %64
    i32 1, label %64
  ]

64:                                               ; preds = %62, %62
  ret void

65:                                               ; preds = %62
  unreachable
}

; Function Attrs: nounwind uwtable
define i32 @bufferevent_disable(ptr noundef %0, i16 noundef signext %1) #0 {
  %3 = alloca ptr, align 8
  %4 = alloca i16, align 2
  %5 = alloca i32, align 4
  %6 = alloca ptr, align 8
  %7 = alloca ptr, align 8
  store ptr %0, ptr %3, align 8
  store i16 %1, ptr %4, align 2
  call void @llvm.lifetime.start.p0(i64 4, ptr %5) #7
  store i32 0, ptr %5, align 4
  br label %8

8:                                                ; preds = %2
  call void @llvm.lifetime.start.p0(i64 8, ptr %6) #7
  %9 = load ptr, ptr %3, align 8
  %10 = getelementptr inbounds i8, ptr %9, i64 0
  store ptr %10, ptr %6, align 8
  br label %11

11:                                               ; preds = %8
  %12 = load ptr, ptr %6, align 8
  %13 = getelementptr inbounds nuw %struct.bufferevent_private, ptr %12, i32 0, i32 11
  %14 = load ptr, ptr %13, align 8
  %15 = icmp ne ptr %14, null
  br i1 %15, label %16, label %22

16:                                               ; preds = %11
  %17 = load ptr, ptr getelementptr inbounds nuw (%struct.evthread_lock_callbacks, ptr @evthread_lock_fns_, i32 0, i32 4), align 8
  %18 = load ptr, ptr %6, align 8
  %19 = getelementptr inbounds nuw %struct.bufferevent_private, ptr %18, i32 0, i32 11
  %20 = load ptr, ptr %19, align 8
  %21 = call i32 %17(i32 noundef 0, ptr noundef %20)
  br label %22

22:                                               ; preds = %16, %11
  br label %23

23:                                               ; preds = %22
  br label %24

24:                                               ; preds = %23
  call void @llvm.lifetime.end.p0(i64 8, ptr %6) #7
  br label %25

25:                                               ; preds = %24
  br label %26

26:                                               ; preds = %25
  %27 = load i16, ptr %4, align 2
  %28 = sext i16 %27 to i32
  %29 = xor i32 %28, -1
  %30 = load ptr, ptr %3, align 8
  %31 = getelementptr inbounds nuw %struct.bufferevent, ptr %30, i32 0, i32 14
  %32 = load i16, ptr %31, align 8
  %33 = sext i16 %32 to i32
  %34 = and i32 %33, %29
  %35 = trunc i32 %34 to i16
  store i16 %35, ptr %31, align 8
  %36 = load ptr, ptr %3, align 8
  %37 = getelementptr inbounds nuw %struct.bufferevent, ptr %36, i32 0, i32 1
  %38 = load ptr, ptr %37, align 8
  %39 = getelementptr inbounds nuw %struct.bufferevent_ops, ptr %38, i32 0, i32 3
  %40 = load ptr, ptr %39, align 8
  %41 = load ptr, ptr %3, align 8
  %42 = load i16, ptr %4, align 2
  %43 = call i32 %40(ptr noundef %41, i16 noundef signext %42)
  %44 = icmp slt i32 %43, 0
  br i1 %44, label %45, label %46

45:                                               ; preds = %26
  store i32 -1, ptr %5, align 4
  br label %46

46:                                               ; preds = %45, %26
  %47 = load i32, ptr %5, align 4
  %48 = icmp ne i32 %47, 0
  br i1 %48, label %49, label %60

49:                                               ; preds = %46
  br label %50

50:                                               ; preds = %49
  %51 = load i32, ptr @event_debug_logging_mask_, align 4
  %52 = icmp ne i32 %51, 0
  br i1 %52, label %53, label %57

53:                                               ; preds = %50
  %54 = load i16, ptr %4, align 2
  %55 = sext i16 %54 to i32
  %56 = load ptr, ptr %3, align 8
  call void (ptr, ...) @event_debugx_(ptr noundef @.str.2, ptr noundef @__func__.bufferevent_disable, i32 noundef %55, ptr noundef %56)
  br label %57

57:                                               ; preds = %53, %50
  br label %58

58:                                               ; preds = %57
  br label %59

59:                                               ; preds = %58
  br label %60

60:                                               ; preds = %59, %46
  br label %61

61:                                               ; preds = %60
  call void @llvm.lifetime.start.p0(i64 8, ptr %7) #7
  %62 = load ptr, ptr %3, align 8
  %63 = getelementptr inbounds i8, ptr %62, i64 0
  store ptr %63, ptr %7, align 8
  br label %64

64:                                               ; preds = %61
  %65 = load ptr, ptr %7, align 8
  %66 = getelementptr inbounds nuw %struct.bufferevent_private, ptr %65, i32 0, i32 11
  %67 = load ptr, ptr %66, align 8
  %68 = icmp ne ptr %67, null
  br i1 %68, label %69, label %75

69:                                               ; preds = %64
  %70 = load ptr, ptr getelementptr inbounds nuw (%struct.evthread_lock_callbacks, ptr @evthread_lock_fns_, i32 0, i32 5), align 8
  %71 = load ptr, ptr %7, align 8
  %72 = getelementptr inbounds nuw %struct.bufferevent_private, ptr %71, i32 0, i32 11
  %73 = load ptr, ptr %72, align 8
  %74 = call i32 %70(i32 noundef 0, ptr noundef %73)
  br label %75

75:                                               ; preds = %69, %64
  br label %76

76:                                               ; preds = %75
  br label %77

77:                                               ; preds = %76
  call void @llvm.lifetime.end.p0(i64 8, ptr %7) #7
  br label %78

78:                                               ; preds = %77
  br label %79

79:                                               ; preds = %78
  %80 = load i32, ptr %5, align 4
  call void @llvm.lifetime.end.p0(i64 4, ptr %5) #7
  ret i32 %80
}

; Function Attrs: nounwind uwtable
define void @bufferevent_incref_and_lock_(ptr noundef %0) #0 {
  %2 = alloca ptr, align 8
  %3 = alloca ptr, align 8
  %4 = alloca ptr, align 8
  store ptr %0, ptr %2, align 8
  call void @llvm.lifetime.start.p0(i64 8, ptr %3) #7
  %5 = load ptr, ptr %2, align 8
  %6 = getelementptr inbounds i8, ptr %5, i64 0
  store ptr %6, ptr %3, align 8
  br label %7

7:                                                ; preds = %1
  call void @llvm.lifetime.start.p0(i64 8, ptr %4) #7
  %8 = load ptr, ptr %2, align 8
  %9 = getelementptr inbounds i8, ptr %8, i64 0
  store ptr %9, ptr %4, align 8
  br label %10

10:                                               ; preds = %7
  %11 = load ptr, ptr %4, align 8
  %12 = getelementptr inbounds nuw %struct.bufferevent_private, ptr %11, i32 0, i32 11
  %13 = load ptr, ptr %12, align 8
  %14 = icmp ne ptr %13, null
  br i1 %14, label %15, label %21

15:                                               ; preds = %10
  %16 = load ptr, ptr getelementptr inbounds nuw (%struct.evthread_lock_callbacks, ptr @evthread_lock_fns_, i32 0, i32 4), align 8
  %17 = load ptr, ptr %4, align 8
  %18 = getelementptr inbounds nuw %struct.bufferevent_private, ptr %17, i32 0, i32 11
  %19 = load ptr, ptr %18, align 8
  %20 = call i32 %16(i32 noundef 0, ptr noundef %19)
  br label %21

21:                                               ; preds = %15, %10
  br label %22

22:                                               ; preds = %21
  br label %23

23:                                               ; preds = %22
  call void @llvm.lifetime.end.p0(i64 8, ptr %4) #7
  br label %24

24:                                               ; preds = %23
  br label %25

25:                                               ; preds = %24
  %26 = load ptr, ptr %3, align 8
  %27 = getelementptr inbounds nuw %struct.bufferevent_private, ptr %26, i32 0, i32 10
  %28 = load i32, ptr %27, align 4
  %29 = add nsw i32 %28, 1
  store i32 %29, ptr %27, align 4
  call void @llvm.lifetime.end.p0(i64 8, ptr %3) #7
  ret void
}

; Function Attrs: nounwind uwtable
define internal void @bufferevent_generic_write_timeout_cb(i32 noundef %0, i16 noundef signext %1, ptr noundef %2) #0 {
  %4 = alloca i32, align 4
  %5 = alloca i16, align 2
  %6 = alloca ptr, align 8
  %7 = alloca ptr, align 8
  store i32 %0, ptr %4, align 4
  store i16 %1, ptr %5, align 2
  store ptr %2, ptr %6, align 8
  call void @llvm.lifetime.start.p0(i64 8, ptr %7) #7
  %8 = load ptr, ptr %6, align 8
  store ptr %8, ptr %7, align 8
  %9 = load ptr, ptr %7, align 8
  call void @bufferevent_incref_and_lock_(ptr noundef %9)
  %10 = load ptr, ptr %7, align 8
  %11 = call i32 @bufferevent_disable(ptr noundef %10, i16 noundef signext 4)
  %12 = load ptr, ptr %7, align 8
  call void @bufferevent_run_eventcb_(ptr noundef %12, i16 noundef signext 66, i32 noundef 0)
  %13 = load ptr, ptr %7, align 8
  %14 = call i32 @bufferevent_decref_and_unlock_(ptr noundef %13)
  call void @llvm.lifetime.end.p0(i64 8, ptr %7) #7
  ret void
}