; Function Attrs: nounwind uwtable
define internal void @bufferevent_generic_write_timeout_cb(i32 %0, i16 signext %1, ptr noundef %2) #0 {
  %4 = getelementptr inbounds nuw i8, ptr %2, i64 448
  %5 = load ptr, ptr %4, align 8
  %.not.i = icmp eq ptr %5, null
  br i1 %.not.i, label %bufferevent_incref_and_lock_.exit.thread, label %bufferevent_incref_and_lock_.exit

bufferevent_incref_and_lock_.exit.thread:         ; preds = %3
  %6 = getelementptr inbounds nuw i8, ptr %2, i64 444
  %7 = load i32, ptr %6, align 4
  %8 = add nsw i32 %7, 1
  store i32 %8, ptr %6, align 4
  br label %17

bufferevent_incref_and_lock_.exit:                ; preds = %3
  %9 = load ptr, ptr getelementptr inbounds nuw (i8, ptr @evthread_lock_fns_, i64 24), align 8
  %10 = tail call i32 %9(i32 noundef 0, ptr noundef nonnull %5) #7
  %.pr = load ptr, ptr %4, align 8
  %11 = getelementptr inbounds nuw i8, ptr %2, i64 444
  %12 = load i32, ptr %11, align 4
  %13 = add nsw i32 %12, 1
  store i32 %13, ptr %11, align 4
  %.not.i5 = icmp eq ptr %.pr, null
  br i1 %.not.i5, label %17, label %14

14:                                               ; preds = %bufferevent_incref_and_lock_.exit
  %15 = load ptr, ptr getelementptr inbounds nuw (i8, ptr @evthread_lock_fns_, i64 24), align 8
  %16 = tail call i32 %15(i32 noundef 0, ptr noundef nonnull %.pr) #7
  br label %17

17:                                               ; preds = %bufferevent_incref_and_lock_.exit.thread, %14, %bufferevent_incref_and_lock_.exit
  %18 = phi ptr [ %6, %bufferevent_incref_and_lock_.exit.thread ], [ %11, %14 ], [ %11, %bufferevent_incref_and_lock_.exit ]
  %19 = getelementptr inbounds nuw i8, ptr %2, i64 368
  %20 = load i16, ptr %19, align 8
  %21 = and i16 %20, -5
  store i16 %21, ptr %19, align 8
  %22 = getelementptr inbounds nuw i8, ptr %2, i64 8
  %23 = load ptr, ptr %22, align 8
  %24 = getelementptr inbounds nuw i8, ptr %23, i64 24
  %25 = load ptr, ptr %24, align 8
  %26 = tail call i32 %25(ptr noundef nonnull %2, i16 noundef signext 4) #7
  %27 = icmp slt i32 %26, 0
  %28 = load i32, ptr @event_debug_logging_mask_, align 4
  %29 = icmp ne i32 %28, 0
  %or.cond.i = select i1 %27, i1 %29, i1 false
  br i1 %or.cond.i, label %30, label %31

30:                                               ; preds = %17
  tail call void (ptr, ...) @event_debugx_(ptr noundef nonnull @.str.2, ptr noundef nonnull @__func__.bufferevent_disable, i32 noundef 4, ptr noundef nonnull %2) #7
  br label %31

31:                                               ; preds = %30, %17
  %32 = load ptr, ptr %4, align 8
  %.not17.i = icmp eq ptr %32, null
  br i1 %.not17.i, label %bufferevent_disable.exit, label %33

33:                                               ; preds = %31
  %34 = load ptr, ptr getelementptr inbounds nuw (i8, ptr @evthread_lock_fns_, i64 32), align 8
  %35 = tail call i32 %34(i32 noundef 0, ptr noundef nonnull %32) #7
  br label %bufferevent_disable.exit

bufferevent_disable.exit:                         ; preds = %31, %33
  %36 = getelementptr inbounds nuw i8, ptr %2, i64 320
  %37 = load ptr, ptr %36, align 8
  %38 = icmp eq ptr %37, null
  br i1 %38, label %bufferevent_run_eventcb_.exit, label %39

39:                                               ; preds = %bufferevent_disable.exit
  %40 = getelementptr inbounds nuw i8, ptr %2, i64 440
  %41 = load i32, ptr %40, align 8
  %42 = and i32 %41, 4
  %.not.i6 = icmp eq i32 %42, 0
  br i1 %.not.i6, label %65, label %43

43:                                               ; preds = %39
  %44 = getelementptr inbounds nuw i8, ptr %2, i64 386
  %45 = load i16, ptr %44, align 2
  %46 = or i16 %45, 66
  store i16 %46, ptr %44, align 2
  %47 = tail call ptr @__errno_location() #8
  %48 = load i32, ptr %47, align 4
  %49 = getelementptr inbounds nuw i8, ptr %2, i64 392
  store i32 %48, ptr %49, align 8
  %50 = load ptr, ptr %2, align 8
  %51 = getelementptr inbounds nuw i8, ptr %2, i64 400
  %52 = tail call i32 @event_deferred_cb_schedule_(ptr noundef %50, ptr noundef nonnull %51) #7
  %.not13.i = icmp eq i32 %52, 0
  br i1 %.not13.i, label %bufferevent_run_eventcb_.exit, label %53

53:                                               ; preds = %43
  %54 = load ptr, ptr %4, align 8
  %.not.i.i = icmp eq ptr %54, null
  br i1 %.not.i.i, label %.thread.i.i, label %57

.thread.i.i:                                      ; preds = %53
  %55 = load i32, ptr %18, align 4
  %56 = add nsw i32 %55, 1
  store i32 %56, ptr %18, align 4
  br label %bufferevent_run_eventcb_.exit

57:                                               ; preds = %53
  %58 = load ptr, ptr getelementptr inbounds nuw (i8, ptr @evthread_lock_fns_, i64 24), align 8
  %59 = tail call i32 %58(i32 noundef 0, ptr noundef nonnull %54) #7
  %.pr.i.i = load ptr, ptr %4, align 8
  %60 = load i32, ptr %18, align 4
  %61 = add nsw i32 %60, 1
  store i32 %61, ptr %18, align 4
  %.not9.i.i = icmp eq ptr %.pr.i.i, null
  br i1 %.not9.i.i, label %bufferevent_run_eventcb_.exit, label %62

62:                                               ; preds = %57
  %63 = load ptr, ptr getelementptr inbounds nuw (i8, ptr @evthread_lock_fns_, i64 32), align 8
  %64 = tail call i32 %63(i32 noundef 0, ptr noundef nonnull %.pr.i.i) #7
  br label %bufferevent_run_eventcb_.exit

65:                                               ; preds = %39
  %66 = getelementptr inbounds nuw i8, ptr %2, i64 328
  %67 = load ptr, ptr %66, align 8
  tail call void %37(ptr noundef nonnull %2, i16 noundef signext 66, ptr noundef %67) #7
  br label %bufferevent_run_eventcb_.exit

bufferevent_run_eventcb_.exit:                    ; preds = %bufferevent_disable.exit, %43, %.thread.i.i, %57, %62, %65
  %68 = tail call i32 @bufferevent_decref_and_unlock_(ptr noundef nonnull %2)
  ret void
}